target datalayout = "e-m:e-p270:32:32-p271:32:32-p272:64:64-i64:64-i128:128-f80:128-n8:16:32:64-S128"
target triple = "x86_64-pc-linux-gnu"

; Function Attrs: nounwind uwtable
define dso_local void @appendConnStrVal(ptr noundef %0, ptr noundef %1) #0 {
  %3 = alloca ptr, align 8
  %4 = alloca ptr, align 8
  %5 = alloca ptr, align 8
  %6 = alloca i8, align 1
  store ptr %0, ptr %3, align 8
  store ptr %1, ptr %4, align 8
  call void @llvm.lifetime.start.p0(i64 8, ptr %5) #8
  call void @llvm.lifetime.start.p0(i64 1, ptr %6) #8
  store i8 1, ptr %6, align 1
  %7 = load ptr, ptr %4, align 8
  store ptr %7, ptr %5, align 8
  br label %8

8:                                                ; preds = %54, %2
  %9 = load ptr, ptr %5, align 8
  %10 = load i8, ptr %9, align 1
  %11 = icmp ne i8 %10, 0
  br i1 %11, label %12, label %57

12:                                               ; preds = %8
  %13 = load ptr, ptr %5, align 8
  %14 = load i8, ptr %13, align 1
  %15 = sext i8 %14 to i32
  %16 = icmp sge i32 %15, 97
  br i1 %16, label %17, label %22

17:                                               ; preds = %12
  %18 = load ptr, ptr %5, align 8
  %19 = load i8, ptr %18, align 1
  %20 = sext i8 %19 to i32
  %21 = icmp sle i32 %20, 122
  br i1 %21, label %53, label %22

22:                                               ; preds = %17, %12
  %23 = load ptr, ptr %5, align 8
  %24 = load i8, ptr %23, align 1
  %25 = sext i8 %24 to i32
  %26 = icmp sge i32 %25, 65
  br i1 %26, label %27, label %32

27:                                               ; preds = %22
  %28 = load ptr, ptr %5, align 8
  %29 = load i8, ptr %28, align 1
  %30 = sext i8 %29 to i32
  %31 = icmp sle i32 %30, 90
  br i1 %31, label %53, label %32

32:                                               ; preds = %27, %22
  %33 = load ptr, ptr %5, align 8
  %34 = load i8, ptr %33, align 1
  %35 = sext i8 %34 to i32
  %36 = icmp sge i32 %35, 48
  br i1 %36, label %37, label %42

37:                                               ; preds = %32
  %38 = load ptr, ptr %5, align 8
  %39 = load i8, ptr %38, align 1
  %40 = sext i8 %39 to i32
  %41 = icmp sle i32 %40, 57
  br i1 %41, label %53, label %42

42:                                               ; preds = %37, %32
  %43 = load ptr, ptr %5, align 8
  %44 = load i8, ptr %43, align 1
  %45 = sext i8 %44 to i32
  %46 = icmp eq i32 %45, 95
  br i1 %46, label %53, label %47

47:                                               ; preds = %42
  %48 = load ptr, ptr %5, align 8
  %49 = load i8, ptr %48, align 1
  %50 = sext i8 %49 to i32
  %51 = icmp eq i32 %50, 46
  br i1 %51, label %53, label %52

52:                                               ; preds = %47
  store i8 1, ptr %6, align 1
  br label %57

53:                                               ; preds = %47, %42, %37, %27, %17
  store i8 0, ptr %6, align 1
  br label %54

54:                                               ; preds = %53
  %55 = load ptr, ptr %5, align 8
  %56 = getelementptr inbounds nuw i8, ptr %55, i32 1
  store ptr %56, ptr %5, align 8
  br label %8, !llvm.loop !15

57:                                               ; preds = %52, %8
  %58 = load i8, ptr %6, align 1, !range !6, !noundef !7
  %59 = trunc i8 %58 to i1
  br i1 %59, label %60, label %86

60:                                               ; preds = %57
  %61 = load ptr, ptr %3, align 8
  call void @appendPQExpBufferChar(ptr noundef %61, i8 noundef signext 39)
  br label %62

62:                                               ; preds = %78, %60
  %63 = load ptr, ptr %4, align 8
  %64 = load i8, ptr %63, align 1
  %65 = icmp ne i8 %64, 0
  br i1 %65, label %66, label %84

66:                                               ; preds = %62
  %67 = load ptr, ptr %4, align 8
  %68 = load i8, ptr %67, align 1
  %69 = sext i8 %68 to i32
  %70 = icmp eq i32 %69, 39
  br i1 %70, label %76, label %71

71:                                               ; preds = %66
  %72 = load ptr, ptr %4, align 8
  %73 = load i8, ptr %72, align 1
  %74 = sext i8 %73 to i32
  %75 = icmp eq i32 %74, 92
  br i1 %75, label %76, label %78

76:                                               ; preds = %71, %66
  %77 = load ptr, ptr %3, align 8
  call void @appendPQExpBufferChar(ptr noundef %77, i8 noundef signext 92)
  br label %78

78:                                               ; preds = %76, %71
  %79 = load ptr, ptr %3, align 8
  %80 = load ptr, ptr %4, align 8
  %81 = load i8, ptr %80, align 1
  call void @appendPQExpBufferChar(ptr noundef %79, i8 noundef signext %81)
  %82 = load ptr, ptr %4, align 8
  %83 = getelementptr inbounds nuw i8, ptr %82, i32 1
  store ptr %83, ptr %4, align 8
  br label %62, !llvm.loop !16

84:                                               ; preds = %62
  %85 = load ptr, ptr %3, align 8
  call void @appendPQExpBufferChar(ptr noundef %85, i8 noundef signext 39)
  br label %89

86:                                               ; preds = %57
  %87 = load ptr, ptr %3, align 8
  %88 = load ptr, ptr %4, align 8
  call void @appendPQExpBufferStr(ptr noundef %87, ptr noundef %88)
  br label %89

89:                                               ; preds = %86, %84
  call void @llvm.lifetime.end.p0(i64 1, ptr %6) #8
  call void @llvm.lifetime.end.p0(i64 8, ptr %5) #8
  ret void
}