; Function Attrs: nounwind uwtable
define dso_local void @appendConnStrVal(ptr noundef %0, ptr noundef %1) local_unnamed_addr #0 {
  %3 = load i8, ptr %1, align 1
  %.not37 = icmp eq i8 %3, 0
  br i1 %.not37, label %.critedge, label %.lr.ph

.lr.ph:                                           ; preds = %2, %9
  %4 = phi i8 [ %11, %9 ], [ %3, %2 ]
  %.02238 = phi ptr [ %10, %9 ], [ %1, %2 ]
  %5 = and i8 %4, -33
  %6 = add i8 %5, -65
  %or.cond34 = icmp ult i8 %6, 26
  %7 = add i8 %4, -48
  %or.cond33 = icmp ult i8 %7, 10
  %or.cond35 = or i1 %or.cond33, %or.cond34
  br i1 %or.cond35, label %9, label %8

8:                                                ; preds = %.lr.ph
  switch i8 %4, label %.critedge [
    i8 95, label %9
    i8 46, label %9
  ]

9:                                                ; preds = %8, %8, %.lr.ph
  %10 = getelementptr inbounds nuw i8, ptr %.02238, i64 1
  %11 = load i8, ptr %10, align 1
  %.not = icmp eq i8 %11, 0
  br i1 %.not, label %._crit_edge, label %.lr.ph, !llvm.loop !13

.critedge:                                        ; preds = %8, %2
  tail call void @appendPQExpBufferChar(ptr noundef %0, i8 noundef signext 39) #11
  br label %12

12:                                               ; preds = %15, %.critedge
  %.023 = phi ptr [ %1, %.critedge ], [ %17, %15 ]
  %13 = load i8, ptr %.023, align 1
  switch i8 %13, label %15 [
    i8 0, label %18
    i8 39, label %14
    i8 92, label %14
  ]

14:                                               ; preds = %12, %12
  tail call void @appendPQExpBufferChar(ptr noundef %0, i8 noundef signext 92) #11
  %.pre = load i8, ptr %.023, align 1
  br label %15

15:                                               ; preds = %12, %14
  %16 = phi i8 [ %13, %12 ], [ %.pre, %14 ]
  tail call void @appendPQExpBufferChar(ptr noundef %0, i8 noundef signext %16) #11
  %17 = getelementptr inbounds nuw i8, ptr %.023, i64 1
  br label %12, !llvm.loop !14

18:                                               ; preds = %12
  tail call void @appendPQExpBufferChar(ptr noundef %0, i8 noundef signext 39) #11
  br label %19

._crit_edge:                                      ; preds = %9
  tail call void @appendPQExpBufferStr(ptr noundef %0, ptr noundef nonnull %1) #11
  br label %19

19:                                               ; preds = %._crit_edge, %18
  ret void
}